target datalayout = "e-m:e-p270:32:32-p271:32:32-p272:64:64-i64:64-i128:128-f80:128-n8:16:32:64-S128"
target triple = "x86_64-pc-linux-gnu"

%struct.__va_list_tag = type { i32, i32, ptr, ptr }

@_ZL13gTraceContext = internal global ptr null, align 8
@_ZL14pTraceDataFunc = internal global ptr null, align 8

; Function Attrs: mustprogress uwtable
define void @utrace_data_77(i32 noundef %0, i32 noundef %1, ptr noundef %2, ...) #0 {
  %4 = alloca i32, align 4
  %5 = alloca i32, align 4
  %6 = alloca ptr, align 8
  %7 = alloca [1 x %struct.__va_list_tag], align 16
  store i32 %0, ptr %4, align 4, !tbaa !3
  store i32 %1, ptr %5, align 4, !tbaa !3
  store ptr %2, ptr %6, align 8, !tbaa !9
  %8 = load ptr, ptr @_ZL14pTraceDataFunc, align 8, !tbaa !7
  %9 = icmp ne ptr %8, null
  br i1 %9, label %10, label %19

10:                                               ; preds = %3
  call void @llvm.lifetime.start.p0(i64 24, ptr %7) #5
  %11 = getelementptr inbounds [1 x %struct.__va_list_tag], ptr %7, i64 0, i64 0
  call void @llvm.va_start.p0(ptr %11)
  %12 = load ptr, ptr @_ZL14pTraceDataFunc, align 8, !tbaa !7
  %13 = load ptr, ptr @_ZL13gTraceContext, align 8, !tbaa !7
  %14 = load i32, ptr %4, align 4, !tbaa !3
  %15 = load i32, ptr %5, align 4, !tbaa !3
  %16 = load ptr, ptr %6, align 8, !tbaa !9
  %17 = getelementptr inbounds [1 x %struct.__va_list_tag], ptr %7, i64 0, i64 0
  call void %12(ptr noundef %13, i32 noundef %14, i32 noundef %15, ptr noundef %16, ptr noundef %17)
  %18 = getelementptr inbounds [1 x %struct.__va_list_tag], ptr %7, i64 0, i64 0
  call void @llvm.va_end.p0(ptr %18)
  call void @llvm.lifetime.end.p0(i64 24, ptr %7) #5
  br label %19

19:                                               ; preds = %10, %3
  ret void
}