; Function Attrs: mustprogress uwtable
define void @utrace_data_77(i32 noundef %0, i32 noundef %1, ptr noundef %2, ...) local_unnamed_addr #0 {
  %4 = alloca [1 x %struct.__va_list_tag], align 16
  %5 = load ptr, ptr @_ZL14pTraceDataFunc, align 8, !tbaa !3
  %.not = icmp eq ptr %5, null
  br i1 %.not, label %8, label %6

6:                                                ; preds = %3
  call void @llvm.lifetime.start.p0(i64 24, ptr nonnull %4) #12
  call void @llvm.va_start.p0(ptr nonnull %4)
  %7 = load ptr, ptr @_ZL13gTraceContext, align 8, !tbaa !3
  call void %5(ptr noundef %7, i32 noundef %0, i32 noundef %1, ptr noundef %2, ptr noundef nonnull %4)
  call void @llvm.va_end.p0(ptr nonnull %4)
  call void @llvm.lifetime.end.p0(i64 24, ptr nonnull %4) #12
  br label %8

8:                                                ; preds = %6, %3
  ret void
}